; Function Attrs: nounwind uwtable
define i32 @glfwRawMouseMotionSupported() local_unnamed_addr #0 {
  %1 = load i32, ptr @_glfw, align 8, !tbaa !170
  %.not = icmp eq i32 %1, 0
  br i1 %.not, label %2, label %3

2:                                                ; preds = %0
  tail call void (i32, ptr, ...) @_glfwInputError(i32 noundef 65537, ptr noundef null) #12
  br label %6

3:                                                ; preds = %0
  %4 = load ptr, ptr getelementptr inbounds nuw (i8, ptr @_glfw, i64 96), align 8, !tbaa !175
  %5 = tail call i32 %4() #12
  br label %6

6:                                                ; preds = %3, %2
  %.0 = phi i32 [ %5, %3 ], [ 0, %2 ]
  ret i32 %.0
}